target datalayout = "e-m:e-p270:32:32-p271:32:32-p272:64:64-i64:64-i128:128-f80:128-n8:16:32:64-S128"
target triple = "x86_64-pc-linux-gnu"

%struct.TString = type { ptr, i8, i8, i8, i8, i32, %union.anon, ptr, ptr, ptr }
%union.anon = type { i64 }
%struct.LexState = type { i32, i32, i32, %struct.Token, %struct.Token, ptr, ptr, ptr, ptr, ptr, ptr, ptr, ptr }
%struct.Token = type { i32, %union.SemInfo }
%union.SemInfo = type { double }
%struct.TValue = type { %union.Value, i8 }
%union.Value = type { ptr }
%struct.lua_State = type { ptr, i8, i8, i8, i8, i16, %union.StkIdRel, ptr, ptr, %union.StkIdRel, %union.StkIdRel, ptr, %union.StkIdRel, ptr, ptr, ptr, %struct.CallInfo, ptr, i64, i32, i32, i32, i32, i32, %struct.anon.3 }
%union.StkIdRel = type { ptr }
%struct.CallInfo = type { %union.StkIdRel, %union.StkIdRel, ptr, ptr, %union.anon.0, %union.anon.2, i32 }
%union.anon.0 = type { %struct.anon.1 }
%struct.anon.1 = type { ptr, i64, i64 }
%union.anon.2 = type { i32 }
%struct.anon.3 = type { i32, i32 }
%union.StackValue = type { %struct.TValue }
%struct.global_State = type { ptr, ptr, i64, i64, i64, i64, %struct.stringtable, %struct.TValue, %struct.TValue, i32, [6 x i8], i8, i8, i8, i8, i8, i8, ptr, ptr, ptr, ptr, ptr, ptr, ptr, ptr, ptr, ptr, ptr, ptr, ptr, ptr, ptr, ptr, ptr, ptr, ptr, ptr, ptr, [25 x ptr], [9 x ptr], [53 x [2 x ptr]], ptr, ptr }
%struct.stringtable = type { ptr, i32, i32 }

; Function Attrs: nounwind uwtable
define internal ptr @anchorstr(ptr noundef %0, ptr noundef %1) #0 {
  %3 = alloca ptr, align 8
  %4 = alloca ptr, align 8
  %5 = alloca ptr, align 8
  %6 = alloca ptr, align 8
  %7 = alloca %struct.TValue, align 8
  %8 = alloca i32, align 4
  %9 = alloca i32, align 4
  %10 = alloca ptr, align 8
  %11 = alloca ptr, align 8
  %12 = alloca ptr, align 8
  store ptr %0, ptr %4, align 8, !tbaa !18
  store ptr %1, ptr %5, align 8, !tbaa !9
  call void @llvm.lifetime.start.p0(i64 8, ptr %6) #6
  %13 = load ptr, ptr %4, align 8, !tbaa !18
  %14 = getelementptr inbounds nuw %struct.LexState, ptr %13, i32 0, i32 6
  %15 = load ptr, ptr %14, align 8, !tbaa !21
  store ptr %15, ptr %6, align 8, !tbaa !4
  call void @llvm.lifetime.start.p0(i64 16, ptr %7) #6
  call void @llvm.lifetime.start.p0(i64 4, ptr %8) #6
  %16 = load ptr, ptr %4, align 8, !tbaa !18
  %17 = getelementptr inbounds nuw %struct.LexState, ptr %16, i32 0, i32 9
  %18 = load ptr, ptr %17, align 8, !tbaa !34
  %19 = load ptr, ptr %5, align 8, !tbaa !9
  %20 = call zeroext i8 @luaH_getstr(ptr noundef %18, ptr noundef %19, ptr noundef %7)
  %21 = zext i8 %20 to i32
  store i32 %21, ptr %8, align 4, !tbaa !11
  %22 = load i32, ptr %8, align 4, !tbaa !11
  %23 = and i32 %22, 15
  %24 = icmp eq i32 %23, 0
  br i1 %24, label %28, label %25

25:                                               ; preds = %2
  %26 = getelementptr inbounds nuw %struct.TValue, ptr %7, i32 0, i32 0
  %27 = load ptr, ptr %26, align 8, !tbaa !20
  store ptr %27, ptr %3, align 8
  store i32 1, ptr %9, align 4
  br label %66

28:                                               ; preds = %2
  call void @llvm.lifetime.start.p0(i64 8, ptr %10) #6
  %29 = load ptr, ptr %6, align 8, !tbaa !4
  %30 = getelementptr inbounds nuw %struct.lua_State, ptr %29, i32 0, i32 6
  %31 = load ptr, ptr %30, align 8, !tbaa !20
  %32 = getelementptr inbounds nuw %union.StackValue, ptr %31, i32 1
  store ptr %32, ptr %30, align 8, !tbaa !20
  store ptr %31, ptr %10, align 8, !tbaa !35
  call void @llvm.lifetime.start.p0(i64 8, ptr %11) #6
  %33 = load ptr, ptr %10, align 8, !tbaa !35
  store ptr %33, ptr %11, align 8, !tbaa !35
  call void @llvm.lifetime.start.p0(i64 8, ptr %12) #6
  %34 = load ptr, ptr %5, align 8, !tbaa !9
  store ptr %34, ptr %12, align 8, !tbaa !9
  %35 = load ptr, ptr %12, align 8, !tbaa !9
  %36 = load ptr, ptr %11, align 8, !tbaa !35
  %37 = getelementptr inbounds nuw %struct.TValue, ptr %36, i32 0, i32 0
  store ptr %35, ptr %37, align 8, !tbaa !20
  %38 = load ptr, ptr %12, align 8, !tbaa !9
  %39 = getelementptr inbounds nuw %struct.TString, ptr %38, i32 0, i32 1
  %40 = load i8, ptr %39, align 8, !tbaa !37
  %41 = zext i8 %40 to i32
  %42 = or i32 %41, 64
  %43 = trunc i32 %42 to i8
  %44 = load ptr, ptr %11, align 8, !tbaa !35
  %45 = getelementptr inbounds nuw %struct.TValue, ptr %44, i32 0, i32 1
  store i8 %43, ptr %45, align 8, !tbaa !38
  call void @llvm.lifetime.end.p0(i64 8, ptr %12) #6
  call void @llvm.lifetime.end.p0(i64 8, ptr %11) #6
  %46 = load ptr, ptr %6, align 8, !tbaa !4
  %47 = load ptr, ptr %4, align 8, !tbaa !18
  %48 = getelementptr inbounds nuw %struct.LexState, ptr %47, i32 0, i32 9
  %49 = load ptr, ptr %48, align 8, !tbaa !34
  %50 = load ptr, ptr %10, align 8, !tbaa !35
  %51 = load ptr, ptr %10, align 8, !tbaa !35
  call void @luaH_set(ptr noundef %46, ptr noundef %49, ptr noundef %50, ptr noundef %51)
  %52 = load ptr, ptr %6, align 8, !tbaa !4
  %53 = getelementptr inbounds nuw %struct.lua_State, ptr %52, i32 0, i32 7
  %54 = load ptr, ptr %53, align 8, !tbaa !40
  %55 = getelementptr inbounds nuw %struct.global_State, ptr %54, i32 0, i32 3
  %56 = load i64, ptr %55, align 8, !tbaa !49
  %57 = icmp sle i64 %56, 0
  br i1 %57, label %58, label %60

58:                                               ; preds = %28
  %59 = load ptr, ptr %6, align 8, !tbaa !4
  call void @luaC_step(ptr noundef %59)
  br label %60

60:                                               ; preds = %58, %28
  %61 = load ptr, ptr %6, align 8, !tbaa !4
  %62 = getelementptr inbounds nuw %struct.lua_State, ptr %61, i32 0, i32 6
  %63 = load ptr, ptr %62, align 8, !tbaa !20
  %64 = getelementptr inbounds %union.StackValue, ptr %63, i32 -1
  store ptr %64, ptr %62, align 8, !tbaa !20
  %65 = load ptr, ptr %5, align 8, !tbaa !9
  store ptr %65, ptr %3, align 8
  store i32 1, ptr %9, align 4
  call void @llvm.lifetime.end.p0(i64 8, ptr %10) #6
  br label %66

66:                                               ; preds = %60, %25
  call void @llvm.lifetime.end.p0(i64 4, ptr %8) #6
  call void @llvm.lifetime.end.p0(i64 16, ptr %7) #6
  call void @llvm.lifetime.end.p0(i64 8, ptr %6) #6
  %67 = load ptr, ptr %3, align 8
  ret ptr %67
}