; Function Attrs: nounwind uwtable
define internal fastcc ptr @anchorstr(ptr noundef readonly captures(none) %0, ptr noundef %1) unnamed_addr #0 {
  %3 = alloca %struct.TValue, align 8
  %4 = getelementptr inbounds nuw i8, ptr %0, i64 56
  %5 = load ptr, ptr %4, align 8, !tbaa !14
  call void @llvm.lifetime.start.p0(i64 16, ptr nonnull %3) #6
  %6 = getelementptr inbounds nuw i8, ptr %0, i64 80
  %7 = load ptr, ptr %6, align 8, !tbaa !33
  %8 = call zeroext i8 @luaH_getstr(ptr noundef %7, ptr noundef %1, ptr noundef nonnull %3) #6
  %9 = and i8 %8, 15
  %10 = icmp eq i8 %9, 0
  br i1 %10, label %13, label %11

11:                                               ; preds = %2
  %12 = load ptr, ptr %3, align 8, !tbaa !13
  br label %31

13:                                               ; preds = %2
  %14 = getelementptr inbounds nuw i8, ptr %5, i64 16
  %15 = load ptr, ptr %14, align 8, !tbaa !13
  %16 = getelementptr inbounds nuw i8, ptr %15, i64 16
  store ptr %16, ptr %14, align 8, !tbaa !13
  store ptr %1, ptr %15, align 8, !tbaa !13
  %17 = getelementptr inbounds nuw i8, ptr %1, i64 8
  %18 = load i8, ptr %17, align 8, !tbaa !34
  %19 = or i8 %18, 64
  %20 = getelementptr inbounds nuw i8, ptr %15, i64 8
  store i8 %19, ptr %20, align 8, !tbaa !35
  %21 = load ptr, ptr %6, align 8, !tbaa !33
  call void @luaH_set(ptr noundef %5, ptr noundef %21, ptr noundef nonnull %15, ptr noundef nonnull %15) #6
  %22 = getelementptr inbounds nuw i8, ptr %5, i64 24
  %23 = load ptr, ptr %22, align 8, !tbaa !37
  %24 = getelementptr inbounds nuw i8, ptr %23, i64 24
  %25 = load i64, ptr %24, align 8, !tbaa !46
  %26 = icmp slt i64 %25, 1
  br i1 %26, label %27, label %28

27:                                               ; preds = %13
  call void @luaC_step(ptr noundef nonnull %5) #6
  br label %28

28:                                               ; preds = %27, %13
  %29 = load ptr, ptr %14, align 8, !tbaa !13
  %30 = getelementptr inbounds i8, ptr %29, i64 -16
  store ptr %30, ptr %14, align 8, !tbaa !13
  br label %31

31:                                               ; preds = %28, %11
  %.0 = phi ptr [ %1, %28 ], [ %12, %11 ]
  call void @llvm.lifetime.end.p0(i64 16, ptr nonnull %3) #6
  ret ptr %.0
}